(dp0
S'_AgentService:AgentInfo'
p1
(dp2
S'com.plexapp.agents.fanarttv'
p3
(lp4
(dp5
S'media_types'
p6
(lp7
S'Movie'
p8
asS'primary_provider'
p9
I00
sS'fallback_agent'
p10
NsS'contributes_to'
p11
(lp12
S'com.plexapp.agents.imdb'
p13
aS'com.plexapp.agents.themoviedb'
p14
asS'has_attribution'
p15
I01
sS'languages'
p16
(lp17
S'xn'
p18
asS'persist_stored_files'
p19
I01
sS'version'
p20
I0
sS'accepts_from'
p21
NsS'prefs'
p22
I01
sS'name'
p23
S'Fanart.tv'
p24
sa(dp25
S'media_types'
p26
(lp27
S'TV_Show'
p28
asS'primary_provider'
p29
I00
sS'fallback_agent'
p30
NsS'contributes_to'
p31
(lp32
S'com.plexapp.agents.thetvdb'
p33
aS'com.plexapp.agents.themoviedb'
p34
asg15
I01
sS'languages'
p35
(lp36
S'xn'
p37
asS'persist_stored_files'
p38
I01
sS'version'
p39
I0
sS'accepts_from'
p40
NsS'prefs'
p41
I01
sS'name'
p42
S'Fanart.tv'
p43
sa(dp44
S'media_types'
p45
(lp46
S'Artist'
p47
asS'primary_provider'
p48
I00
sS'fallback_agent'
p49
NsS'contributes_to'
p50
(lp51
S'com.plexapp.agents.lastfm'
p52
asg15
I01
sS'languages'
p53
(lp54
S'xn'
p55
asS'persist_stored_files'
p56
I01
sS'version'
p57
I0
sS'accepts_from'
p58
NsS'prefs'
p59
I01
sS'name'
p60
S'Fanart.tv'
p61
sa(dp62
S'media_types'
p63
(lp64
S'Album'
p65
asS'primary_provider'
p66
I00
sS'fallback_agent'
p67
NsS'contributes_to'
p68
(lp69
S'com.plexapp.agents.lastfm'
p70
asg15
I01
sS'languages'
p71
(lp72
S'xn'
p73
asS'persist_stored_files'
p74
I01
sS'version'
p75
I0
sS'accepts_from'
p76
NsS'prefs'
p77
I01
sS'name'
p78
S'Fanart.tv'
p79
sasS'com.plexapp.agents.none'
p80
(lp81
(dp82
S'media_types'
p83
(lp84
S'Movie'
p85
asS'primary_provider'
p86
I01
sS'fallback_agent'
p87
NsS'contributes_to'
p88
Nsg15
I00
sS'languages'
p89
(lp90
S'xn'
p91
asS'persist_stored_files'
p92
I01
sS'version'
p93
I0
sS'accepts_from'
p94
NsS'prefs'
p95
I00
sS'name'
p96
S'Personal Media'
p97
sa(dp98
S'media_types'
p99
(lp100
S'TV_Show'
p101
asS'primary_provider'
p102
I01
sS'fallback_agent'
p103
NsS'contributes_to'
p104
Nsg15
I00
sS'languages'
p105
(lp106
S'xn'
p107
asS'persist_stored_files'
p108
I01
sS'version'
p109
I0
sS'accepts_from'
p110
NsS'prefs'
p111
I00
sS'name'
p112
S'Personal Media Shows'
p113
sa(dp114
S'media_types'
p115
(lp116
S'Artist'
p117
asS'primary_provider'
p118
I01
sS'fallback_agent'
p119
NsS'contributes_to'
p120
Nsg15
I00
sS'languages'
p121
(lp122
S'xn'
p123
asS'persist_stored_files'
p124
I01
sS'version'
p125
I0
sS'accepts_from'
p126
NsS'prefs'
p127
I00
sS'name'
p128
S'Personal Media Artists'
p129
sa(dp130
S'media_types'
p131
(lp132
S'Album'
p133
asS'primary_provider'
p134
I01
sS'fallback_agent'
p135
NsS'contributes_to'
p136
Nsg15
I00
sS'languages'
p137
(lp138
S'xn'
p139
asS'persist_stored_files'
p140
I01
sS'version'
p141
I0
sS'accepts_from'
p142
NsS'prefs'
p143
I00
sS'name'
p144
S'Personal Media Albums'
p145
sa(dp146
S'media_types'
p147
(lp148
S'Photo'
p149
asS'primary_provider'
p150
I01
sS'fallback_agent'
p151
NsS'contributes_to'
p152
Nsg15
I00
sS'languages'
p153
(lp154
S'en'
p155
aS'ar'
p156
aS'bg'
p157
aS'ca'
p158
aS'cs'
p159
aS'cy'
p160
aS'da'
p161
aS'de'
p162
aS'el'
p163
aS'es'
p164
aS'et'
p165
aS'fa'
p166
aS'fi'
p167
aS'fr'
p168
aS'he'
p169
aS'hi'
p170
aS'hr'
p171
aS'ht'
p172
aS'hu'
p173
aS'id'
p174
aS'it'
p175
aS'ja'
p176
aS'ko'
p177
aS'lt'
p178
aS'lv'
p179
aS'ms'
p180
aS'mt'
p181
aS'nl'
p182
aS'no'
p183
aS'pl'
p184
aS'pt'
p185
aS'ro'
p186
aS'ru'
p187
aS'sk'
p188
aS'sv'
p189
aS'sl'
p190
aS'sr'
p191
aS'th'
p192
aS'tr'
p193
aS'uk'
p194
aS'ur'
p195
aS'vi'
p196
aS'zh'
p197
aS'xn'
p198
asS'persist_stored_files'
p199
I01
sS'version'
p200
I0
sS'accepts_from'
p201
NsS'prefs'
p202
I00
sS'name'
p203
S'Photos'
p204
sasS'com.plexapp.agents.opensubtitles'
p205
(lp206
(dp207
S'media_types'
p208
(lp209
S'Movie'
p210
asS'primary_provider'
p211
I00
sS'fallback_agent'
p212
NsS'contributes_to'
p213
(lp214
S'com.plexapp.agents.imdb'
p215
asg15
I00
sS'languages'
p216
(lp217
S'xn'
p218
asS'persist_stored_files'
p219
I01
sS'version'
p220
I0
sS'accepts_from'
p221
NsS'prefs'
p222
I01
sS'name'
p223
S'OpenSubtitles.org'
p224
sa(dp225
S'media_types'
p226
(lp227
S'TV_Show'
p228
asS'primary_provider'
p229
I00
sS'fallback_agent'
p230
NsS'contributes_to'
p231
(lp232
S'com.plexapp.agents.thetvdb'
p233
asg15
I00
sS'languages'
p234
(lp235
S'xn'
p236
asS'persist_stored_files'
p237
I01
sS'version'
p238
I0
sS'accepts_from'
p239
NsS'prefs'
p240
I01
sS'name'
p241
S'OpenSubtitles.org'
p242
sasS'com.plexapp.agents.themoviedb'
p243
(lp244
(dp245
S'media_types'
p246
(lp247
S'Movie'
p248
asS'primary_provider'
p249
I01
sS'fallback_agent'
p250
NsS'contributes_to'
p251
Nsg15
I01
sS'languages'
p252
(lp253
S'en'
p254
aS'cs'
p255
aS'da'
p256
aS'de'
p257
aS'el'
p258
aS'es'
p259
aS'fi'
p260
aS'fr'
p261
aS'he'
p262
aS'hr'
p263
aS'hu'
p264
aS'it'
p265
aS'lv'
p266
aS'lt'
p267
aS'nl'
p268
aS'no'
p269
aS'pl'
p270
aS'pt'
p271
aS'ru'
p272
aS'sk'
p273
aS'sv'
p274
aS'th'
p275
aS'tr'
p276
aS'vi'
p277
aS'zh'
p278
aS'ko'
p279
asS'persist_stored_files'
p280
I01
sS'version'
p281
I0
sS'accepts_from'
p282
(lp283
S'com.plexapp.agents.localmedia'
p284
asS'prefs'
p285
I01
sS'name'
p286
S'The Movie Database'
p287
sa(dp288
S'media_types'
p289
(lp290
S'TV_Show'
p291
asS'primary_provider'
p292
I01
sS'fallback_agent'
p293
NsS'contributes_to'
p294
(lp295
S'com.plexapp.agents.thetvdb'
p296
asg15
I01
sS'languages'
p297
g253
sS'persist_stored_files'
p298
I01
sS'version'
p299
I0
sS'accepts_from'
p300
(lp301
S'com.plexapp.agents.localmedia'
p302
aS'com.plexapp.agents.thetvdb'
p303
asS'prefs'
p304
I01
sS'name'
p305
S'The Movie Database'
p306
sasS'com.plexapp.agents.imdb'
p307
(lp308
(dp309
S'media_types'
p310
(lp311
S'Movie'
p312
asS'primary_provider'
p313
I01
sS'fallback_agent'
p314
NsS'contributes_to'
p315
(lp316
S'com.plexapp.agents.themoviedb'
p317
asg15
I01
sS'languages'
p318
(lp319
S'en'
p320
aS'sv'
p321
aS'fr'
p322
aS'es'
p323
aS'nl'
p324
aS'de'
p325
aS'it'
p326
aS'da'
p327
aS'ar'
p328
aS'ca'
p329
aS'zh'
p330
aS'cs'
p331
aS'et'
p332
aS'fi'
p333
aS'el'
p334
aS'he'
p335
aS'hi'
p336
aS'hu'
p337
aS'id'
p338
aS'ja'
p339
aS'ko'
p340
aS'lv'
p341
aS'no'
p342
aS'fa'
p343
aS'pl'
p344
aS'pt'
p345
aS'ro'
p346
aS'ru'
p347
aS'sk'
p348
aS'th'
p349
aS'tr'
p350
aS'uk'
p351
aS'vi'
p352
asS'persist_stored_files'
p353
I01
sS'version'
p354
I0
sS'accepts_from'
p355
(lp356
S'com.plexapp.agents.localmedia'
p357
asS'prefs'
p358
I01
sS'name'
p359
S'Plex Movie (Legacy)'
p360
sasS'com.plexapp.agents.lyricfind'
p361
(lp362
(dp363
S'media_types'
p364
(lp365
S'Album'
p366
asS'primary_provider'
p367
I00
sS'fallback_agent'
p368
NsS'contributes_to'
p369
(lp370
S'com.plexapp.agents.lastfm'
p371
aS'tv.plex.agents.music'
p372
aS'org.musicbrainz.agents.music'
p373
asg15
I01
sS'languages'
p374
(lp375
S'xn'
p376
asS'persist_stored_files'
p377
I01
sS'version'
p378
I0
sS'accepts_from'
p379
NsS'prefs'
p380
I00
sS'name'
p381
S'LyricFind'
p382
sasS'com.plexapp.agents.thetvdb'
p383
(lp384
(dp385
S'media_types'
p386
(lp387
S'TV_Show'
p388
asS'primary_provider'
p389
I01
sS'fallback_agent'
p390
NsS'contributes_to'
p391
Nsg15
I01
sS'languages'
p392
(lp393
S'en'
p394
aS'fr'
p395
aS'zh'
p396
aS'sv'
p397
aS'no'
p398
aS'da'
p399
aS'fi'
p400
aS'nl'
p401
aS'de'
p402
aS'it'
p403
aS'es'
p404
aS'pl'
p405
aS'hu'
p406
aS'el'
p407
aS'tr'
p408
aS'ru'
p409
aS'he'
p410
aS'ja'
p411
aS'pt'
p412
aS'cs'
p413
aS'ko'
p414
aS'sl'
p415
aS'hr'
p416
asS'persist_stored_files'
p417
I01
sS'version'
p418
I0
sS'accepts_from'
p419
NsS'prefs'
p420
I01
sS'name'
p421
S'TheTVDB'
p422
sasS'com.plexapp.agents.lastfm'
p423
(lp424
(dp425
S'media_types'
p426
(lp427
S'Artist'
p428
asS'primary_provider'
p429
I01
sS'fallback_agent'
p430
NsS'contributes_to'
p431
Nsg15
I01
sS'languages'
p432
(lp433
S'en'
p434
aS'sv'
p435
aS'fr'
p436
aS'es'
p437
aS'de'
p438
aS'pl'
p439
aS'it'
p440
aS'pt'
p441
aS'ja'
p442
aS'tr'
p443
aS'ru'
p444
aS'zh'
p445
asS'persist_stored_files'
p446
I01
sS'version'
p447
I0
sS'accepts_from'
p448
NsS'prefs'
p449
I01
sS'name'
p450
S'Last.fm'
p451
sa(dp452
S'media_types'
p453
(lp454
S'Album'
p455
asS'primary_provider'
p456
I01
sS'fallback_agent'
p457
NsS'contributes_to'
p458
Nsg15
I01
sS'languages'
p459
(lp460
S'en'
p461
aS'sv'
p462
aS'fr'
p463
aS'es'
p464
aS'de'
p465
aS'pl'
p466
aS'it'
p467
aS'pt'
p468
aS'ja'
p469
aS'tr'
p470
aS'ru'
p471
aS'zh'
p472
asS'persist_stored_files'
p473
I01
sS'version'
p474
I0
sS'accepts_from'
p475
NsS'prefs'
p476
I01
sS'name'
p477
S'Last.fm'
p478
sasS'org.musicbrainz.agents.music'
p479
(lp480
(dp481
S'media_types'
p482
(lp483
S'Artist'
p484
asS'primary_provider'
p485
I01
sS'fallback_agent'
p486
NsS'contributes_to'
p487
Nsg15
I01
sS'languages'
p488
(lp489
S'en'
p490
aS'ar'
p491
aS'bg'
p492
aS'zh'
p493
aS'hr'
p494
aS'cs'
p495
aS'da'
p496
aS'nl'
p497
aS'fi'
p498
aS'fr'
p499
aS'de'
p500
aS'el'
p501
aS'hu'
p502
aS'id'
p503
aS'it'
p504
aS'ja'
p505
aS'ko'
p506
aS'nn'
p507
aS'pl'
p508
aS'pt'
p509
aS'ro'
p510
aS'ru'
p511
aS'sr'
p512
aS'sk'
p513
aS'es'
p514
aS'sv'
p515
aS'th'
p516
aS'tr'
p517
aS'vi'
p518
aS'xx'
p519
asS'persist_stored_files'
p520
I01
sS'version'
p521
I0
sS'accepts_from'
p522
NsS'prefs'
p523
I01
sS'name'
p524
S'Musicbrainz'
p525
sa(dp526
S'media_types'
p527
(lp528
S'Album'
p529
asS'primary_provider'
p530
I01
sS'fallback_agent'
p531
NsS'contributes_to'
p532
Nsg15
I01
sS'languages'
p533
g489
sS'persist_stored_files'
p534
I01
sS'version'
p535
I0
sS'accepts_from'
p536
NsS'prefs'
p537
I01
sS'name'
p538
S'Musicbrainz'
p539
sasS'com.plexapp.agents.htbackdrops'
p540
(lp541
(dp542
S'media_types'
p543
(lp544
S'Artist'
p545
asS'primary_provider'
p546
I00
sS'fallback_agent'
p547
NsS'contributes_to'
p548
(lp549
S'com.plexapp.agents.lastfm'
p550
asg15
I01
sS'languages'
p551
(lp552
S'ab'
p553
aS'aa'
p554
aS'af'
p555
aS'ak'
p556
aS'sq'
p557
aS'am'
p558
aS'ar'
p559
aS'an'
p560
aS'hy'
p561
aS'as'
p562
aS'av'
p563
aS'ae'
p564
aS'ay'
p565
aS'az'
p566
aS'bm'
p567
aS'ba'
p568
aS'eu'
p569
aS'be'
p570
aS'bn'
p571
aS'bh'
p572
aS'bi'
p573
aS'bs'
p574
aS'pb'
p575
aS'br'
p576
aS'bg'
p577
aS'my'
p578
aS'ca'
p579
aS'ch'
p580
aS'ce'
p581
aS'ny'
p582
aS'zh'
p583
aS'cu'
p584
aS'cv'
p585
aS'kw'
p586
aS'co'
p587
aS'cr'
p588
aS'hr'
p589
aS'cs'
p590
aS'da'
p591
aS'dv'
p592
aS'nl'
p593
aS'dz'
p594
aS'en'
p595
aS'eo'
p596
aS'et'
p597
aS'ee'
p598
aS'fo'
p599
aS'fj'
p600
aS'fi'
p601
aS'fr'
p602
aS'fy'
p603
aS'ff'
p604
aS'gd'
p605
aS'gl'
p606
aS'lg'
p607
aS'ka'
p608
aS'de'
p609
aS'el'
p610
aS'gn'
p611
aS'gu'
p612
aS'ht'
p613
aS'ha'
p614
aS'he'
p615
aS'hz'
p616
aS'hi'
p617
aS'ho'
p618
aS'hu'
p619
aS'is'
p620
aS'io'
p621
aS'ig'
p622
aS'id'
p623
aS'ia'
p624
aS'ie'
p625
aS'iu'
p626
aS'ik'
p627
aS'ga'
p628
aS'it'
p629
aS'ja'
p630
aS'jv'
p631
aS'kl'
p632
aS'kn'
p633
aS'kr'
p634
aS'ks'
p635
aS'kk'
p636
aS'km'
p637
aS'ki'
p638
aS'rw'
p639
aS'ky'
p640
aS'kv'
p641
aS'kg'
p642
aS'ko'
p643
aS'kj'
p644
aS'ku'
p645
aS'lo'
p646
aS'la'
p647
aS'lv'
p648
aS'li'
p649
aS'ln'
p650
aS'lt'
p651
aS'lu'
p652
aS'lb'
p653
aS'mk'
p654
aS'mg'
p655
aS'ms'
p656
aS'ml'
p657
aS'mt'
p658
aS'gv'
p659
aS'mi'
p660
aS'mr'
p661
aS'mh'
p662
aS'mo'
p663
aS'mn'
p664
aS'na'
p665
aS'nv'
p666
aS'ng'
p667
aS'ne'
p668
aS'xn'
p669
aS'nd'
p670
aS'no'
p671
aS'nb'
p672
aS'nn'
p673
aS'oc'
p674
aS'oj'
p675
aS'or'
p676
aS'om'
p677
aS'os'
p678
aS'pi'
p679
aS'pa'
p680
aS'fa'
p681
aS'pl'
p682
aS'pt'
p683
aS'ps'
p684
aS'qu'
p685
aS'rm'
p686
aS'ro'
p687
aS'rn'
p688
aS'ru'
p689
aS'se'
p690
aS'sm'
p691
aS'sg'
p692
aS'sa'
p693
aS'sc'
p694
aS'sr'
p695
aS'sn'
p696
aS'ii'
p697
aS'sd'
p698
aS'si'
p699
aS'sk'
p700
aS'sl'
p701
aS'so'
p702
aS'st'
p703
aS'nr'
p704
aS'es'
p705
aS'su'
p706
aS'sw'
p707
aS'ss'
p708
aS'sv'
p709
aS'tl'
p710
aS'ty'
p711
aS'tg'
p712
aS'ta'
p713
aS'tt'
p714
aS'te'
p715
aS'th'
p716
aS'bo'
p717
aS'ti'
p718
aS'to'
p719
aS'ts'
p720
aS'tn'
p721
aS'tr'
p722
aS'tk'
p723
aS'tw'
p724
aS'ug'
p725
aS'uk'
p726
aS'ur'
p727
aS'uz'
p728
aS've'
p729
aS'vi'
p730
aS'vo'
p731
aS'wa'
p732
aS'cy'
p733
aS'wo'
p734
aS'xh'
p735
aS'yi'
p736
aS'yo'
p737
aS'za'
p738
aS'zu'
p739
asS'persist_stored_files'
p740
I01
sS'version'
p741
I0
sS'accepts_from'
p742
NsS'prefs'
p743
I00
sS'name'
p744
S'Home Theater Backdrops'
p745
sasS'com.plexapp.agents.movieposterdb'
p746
(lp747
(dp748
S'media_types'
p749
(lp750
S'Movie'
p751
asS'primary_provider'
p752
I00
sS'fallback_agent'
p753
NsS'contributes_to'
p754
(lp755
S'com.plexapp.agents.imdb'
p756
asg15
I01
sS'languages'
p757
(lp758
S'xn'
p759
asS'persist_stored_files'
p760
I01
sS'version'
p761
I0
sS'accepts_from'
p762
NsS'prefs'
p763
I00
sS'name'
p764
S'CineMaterial'
p765
sasS'com.plexapp.agents.localmedia'
p766
(lp767
(dp768
S'media_types'
p769
(lp770
S'Movie'
p771
asS'primary_provider'
p772
I00
sS'fallback_agent'
p773
NsS'contributes_to'
p774
(lp775
S'com.plexapp.agents.imdb'
p776
aS'com.plexapp.agents.none'
p777
asg15
I00
sS'languages'
p778
(lp779
S'xn'
p780
asS'persist_stored_files'
p781
I00
sS'version'
p782
I0
sS'accepts_from'
p783
NsS'prefs'
p784
I01
sS'name'
p785
S'Local Media Assets (Movies)'
p786
sa(dp787
S'media_types'
p788
(lp789
S'TV_Show'
p790
asS'primary_provider'
p791
I00
sS'fallback_agent'
p792
NsS'contributes_to'
p793
(lp794
S'com.plexapp.agents.thetvdb'
p795
aS'com.plexapp.agents.none'
p796
asg15
I00
sS'languages'
p797
(lp798
S'xn'
p799
asS'persist_stored_files'
p800
I00
sS'version'
p801
I0
sS'accepts_from'
p802
NsS'prefs'
p803
I01
sS'name'
p804
S'Local Media Assets (TV)'
p805
sa(dp806
S'media_types'
p807
(lp808
S'Artist'
p809
asS'primary_provider'
p810
I00
sS'fallback_agent'
p811
NsS'contributes_to'
p812
(lp813
S'com.plexapp.agents.discogs'
p814
aS'com.plexapp.agents.lastfm'
p815
aS'com.plexapp.agents.plexmusic'
p816
aS'com.plexapp.agents.none'
p817
aS'tv.plex.agents.music'
p818
aS'org.musicbrainz.agents.music'
p819
asg15
I00
sS'languages'
p820
(lp821
S'xn'
p822
asS'persist_stored_files'
p823
I00
sS'version'
p824
I0
sS'accepts_from'
p825
NsS'prefs'
p826
I01
sS'name'
p827
S'Local Media Assets (Artists)'
p828
sa(dp829
S'media_types'
p830
(lp831
S'Artist'
p832
asS'primary_provider'
p833
I00
sS'fallback_agent'
p834
NsS'contributes_to'
p835
(lp836
S'com.plexapp.agents.plexmusic'
p837
asg15
I00
sS'languages'
p838
g821
sS'persist_stored_files'
p839
I00
sS'version'
p840
I2
sS'accepts_from'
p841
NsS'prefs'
p842
I01
sS'name'
p843
S'Local Media Assets (Artists)'
p844
sa(dp845
S'media_types'
p846
(lp847
S'Album'
p848
asS'primary_provider'
p849
I00
sS'fallback_agent'
p850
NsS'contributes_to'
p851
(lp852
S'com.plexapp.agents.discogs'
p853
aS'com.plexapp.agents.lastfm'
p854
aS'com.plexapp.agents.plexmusic'
p855
aS'com.plexapp.agents.none'
p856
aS'tv.plex.agents.music'
p857
aS'org.musicbrainz.agents.music'
p858
asg15
I00
sS'languages'
p859
(lp860
S'xn'
p861
asS'persist_stored_files'
p862
I00
sS'version'
p863
I0
sS'accepts_from'
p864
NsS'prefs'
p865
I01
sS'name'
p866
S'Local Media Assets (Albums)'
p867
sasS'com.plexapp.agents.plexthememusic'
p868
(lp869
(dp870
S'media_types'
p871
(lp872
S'TV_Show'
p873
asS'primary_provider'
p874
I00
sS'fallback_agent'
p875
NsS'contributes_to'
p876
(lp877
S'com.plexapp.agents.thetvdb'
p878
aS'com.plexapp.agents.thetvdbdvdorder'
p879
aS'com.plexapp.agents.themoviedb'
p880
asg15
I00
sS'languages'
p881
(lp882
S'xn'
p883
asS'persist_stored_files'
p884
I01
sS'version'
p885
I0
sS'accepts_from'
p886
NsS'prefs'
p887
I00
sS'name'
p888
S'Plex Theme Music'
p889
sass.